target datalayout = "e-m:e-p270:32:32-p271:32:32-p272:64:64-i64:64-i128:128-f80:128-n8:16:32:64-S128"
target triple = "x86_64-pc-linux-gnu"

; Function Attrs: mustprogress nounwind uwtable
define internal void @_ZN2cvL10weightFairEPfiS0_f(ptr noundef %0, i32 noundef %1, ptr noundef %2, float noundef %3) #6 {
  %5 = alloca ptr, align 8
  %6 = alloca i32, align 4
  %7 = alloca ptr, align 8
  %8 = alloca float, align 4
  %9 = alloca i32, align 4
  %10 = alloca float, align 4
  store ptr %0, ptr %5, align 8, !tbaa !37
  store i32 %1, ptr %6, align 4, !tbaa !10
  store ptr %2, ptr %7, align 8, !tbaa !37
  store float %3, ptr %8, align 4, !tbaa !35
  call void @llvm.lifetime.start.p0(i64 4, ptr %9) #15
  call void @llvm.lifetime.start.p0(i64 4, ptr %10) #15
  %11 = load float, ptr %8, align 4, !tbaa !35
  %12 = fcmp oeq float %11, 0.000000e+00
  br i1 %12, label %13, label %14

13:                                               ; preds = %4
  br label %17

14:                                               ; preds = %4
  %15 = load float, ptr %8, align 4, !tbaa !35
  %16 = fdiv float 1.000000e+00, %15
  br label %17

17:                                               ; preds = %14, %13
  %18 = phi float [ 0x3FE6DC43C0000000, %13 ], [ %16, %14 ]
  store float %18, ptr %10, align 4, !tbaa !35
  store i32 0, ptr %9, align 4, !tbaa !10
  br label %19

19:                                               ; preds = %36, %17
  %20 = load i32, ptr %9, align 4, !tbaa !10
  %21 = load i32, ptr %6, align 4, !tbaa !10
  %22 = icmp slt i32 %20, %21
  br i1 %22, label %23, label %39

23:                                               ; preds = %19
  %24 = load ptr, ptr %5, align 8, !tbaa !37
  %25 = load i32, ptr %9, align 4, !tbaa !10
  %26 = sext i32 %25 to i64
  %27 = getelementptr inbounds float, ptr %24, i64 %26
  %28 = load float, ptr %27, align 4, !tbaa !35
  %29 = load float, ptr %10, align 4, !tbaa !35
  %30 = call float @llvm.fmuladd.f32(float %28, float %29, float 1.000000e+00)
  %31 = fdiv float 1.000000e+00, %30
  %32 = load ptr, ptr %7, align 8, !tbaa !37
  %33 = load i32, ptr %9, align 4, !tbaa !10
  %34 = sext i32 %33 to i64
  %35 = getelementptr inbounds float, ptr %32, i64 %34
  store float %31, ptr %35, align 4, !tbaa !35
  br label %36

36:                                               ; preds = %23
  %37 = load i32, ptr %9, align 4, !tbaa !10
  %38 = add nsw i32 %37, 1
  store i32 %38, ptr %9, align 4, !tbaa !10
  br label %19, !llvm.loop !88

39:                                               ; preds = %19
  call void @llvm.lifetime.end.p0(i64 4, ptr %10) #15
  call void @llvm.lifetime.end.p0(i64 4, ptr %9) #15
  ret void
}